target datalayout = "e-m:e-p270:32:32-p271:32:32-p272:64:64-i64:64-i128:128-f80:128-n8:16:32:64-S128"
target triple = "x86_64-pc-linux-gnu"

%struct._srt_stat_table = type { ptr, ptr, ptr, i32, ptr, ptr, ptr }
%struct._srt_procedure_t = type { i32, %struct._timestat_t, ptr }
%struct._timestat_t = type { i32, i32, i32, %struct.nstime_t, %struct.nstime_t, %struct.nstime_t, double }
%struct.nstime_t = type { i64, i32 }

; Function Attrs: null_pointer_is_valid sspstrong uwtable
define void @init_srt_table_row(ptr noundef %0, i32 noundef %1, ptr noundef %2) #1 {
  %4 = alloca ptr, align 8
  %5 = alloca i32, align 4
  %6 = alloca ptr, align 8
  %7 = alloca i32, align 4
  %8 = alloca i32, align 4
  store ptr %0, ptr %4, align 8
  store i32 %1, ptr %5, align 4
  store ptr %2, ptr %6, align 8
  %9 = load i32, ptr %5, align 4
  %10 = load ptr, ptr %4, align 8
  %11 = getelementptr inbounds nuw %struct._srt_stat_table, ptr %10, i32 0, i32 3
  %12 = load i32, ptr %11, align 8
  %13 = icmp sge i32 %9, %12
  br i1 %13, label %14, label %67

14:                                               ; preds = %3
  call void @llvm.lifetime.start.p0(i64 4, ptr %7) #11
  %15 = load ptr, ptr %4, align 8
  %16 = getelementptr inbounds nuw %struct._srt_stat_table, ptr %15, i32 0, i32 3
  %17 = load i32, ptr %16, align 8
  store i32 %17, ptr %7, align 4
  call void @llvm.lifetime.start.p0(i64 4, ptr %8) #11
  %18 = load i32, ptr %5, align 4
  %19 = add i32 %18, 1
  %20 = load ptr, ptr %4, align 8
  %21 = getelementptr inbounds nuw %struct._srt_stat_table, ptr %20, i32 0, i32 3
  store i32 %19, ptr %21, align 8
  %22 = load ptr, ptr %4, align 8
  %23 = getelementptr inbounds nuw %struct._srt_stat_table, ptr %22, i32 0, i32 5
  %24 = load ptr, ptr %23, align 8
  %25 = load ptr, ptr %4, align 8
  %26 = getelementptr inbounds nuw %struct._srt_stat_table, ptr %25, i32 0, i32 3
  %27 = load i32, ptr %26, align 8
  %28 = sext i32 %27 to i64
  %29 = mul i64 88, %28
  %30 = call ptr @g_realloc(ptr noundef %24, i64 noundef %29)
  %31 = load ptr, ptr %4, align 8
  %32 = getelementptr inbounds nuw %struct._srt_stat_table, ptr %31, i32 0, i32 5
  store ptr %30, ptr %32, align 8
  %33 = load i32, ptr %7, align 4
  store i32 %33, ptr %8, align 4
  br label %34

34:                                               ; preds = %63, %14
  %35 = load i32, ptr %8, align 4
  %36 = load ptr, ptr %4, align 8
  %37 = getelementptr inbounds nuw %struct._srt_stat_table, ptr %36, i32 0, i32 3
  %38 = load i32, ptr %37, align 8
  %39 = icmp slt i32 %35, %38
  br i1 %39, label %40, label %66

40:                                               ; preds = %34
  %41 = load ptr, ptr %4, align 8
  %42 = getelementptr inbounds nuw %struct._srt_stat_table, ptr %41, i32 0, i32 5
  %43 = load ptr, ptr %42, align 8
  %44 = load i32, ptr %8, align 4
  %45 = sext i32 %44 to i64
  %46 = getelementptr %struct._srt_procedure_t, ptr %43, i64 %45
  %47 = getelementptr inbounds nuw %struct._srt_procedure_t, ptr %46, i32 0, i32 1
  call void @time_stat_init(ptr noundef %47)
  %48 = load i32, ptr %8, align 4
  %49 = load ptr, ptr %4, align 8
  %50 = getelementptr inbounds nuw %struct._srt_stat_table, ptr %49, i32 0, i32 5
  %51 = load ptr, ptr %50, align 8
  %52 = load i32, ptr %8, align 4
  %53 = sext i32 %52 to i64
  %54 = getelementptr %struct._srt_procedure_t, ptr %51, i64 %53
  %55 = getelementptr inbounds nuw %struct._srt_procedure_t, ptr %54, i32 0, i32 0
  store i32 %48, ptr %55, align 8
  %56 = load ptr, ptr %4, align 8
  %57 = getelementptr inbounds nuw %struct._srt_stat_table, ptr %56, i32 0, i32 5
  %58 = load ptr, ptr %57, align 8
  %59 = load i32, ptr %8, align 4
  %60 = sext i32 %59 to i64
  %61 = getelementptr %struct._srt_procedure_t, ptr %58, i64 %60
  %62 = getelementptr inbounds nuw %struct._srt_procedure_t, ptr %61, i32 0, i32 2
  store ptr null, ptr %62, align 8
  br label %63

63:                                               ; preds = %40
  %64 = load i32, ptr %8, align 4
  %65 = add i32 %64, 1
  store i32 %65, ptr %8, align 4
  br label %34, !llvm.loop !12

66:                                               ; preds = %34
  call void @llvm.lifetime.end.p0(i64 4, ptr %8) #11
  call void @llvm.lifetime.end.p0(i64 4, ptr %7) #11
  br label %67

67:                                               ; preds = %66, %3
  %68 = load i32, ptr %5, align 4
  %69 = load ptr, ptr %4, align 8
  %70 = getelementptr inbounds nuw %struct._srt_stat_table, ptr %69, i32 0, i32 5
  %71 = load ptr, ptr %70, align 8
  %72 = load i32, ptr %5, align 4
  %73 = sext i32 %72 to i64
  %74 = getelementptr %struct._srt_procedure_t, ptr %71, i64 %73
  %75 = getelementptr inbounds nuw %struct._srt_procedure_t, ptr %74, i32 0, i32 0
  store i32 %68, ptr %75, align 8
  %76 = load ptr, ptr %6, align 8
  %77 = call noalias ptr @g_strdup(ptr noundef %76)
  %78 = load ptr, ptr %4, align 8
  %79 = getelementptr inbounds nuw %struct._srt_stat_table, ptr %78, i32 0, i32 5
  %80 = load ptr, ptr %79, align 8
  %81 = load i32, ptr %5, align 4
  %82 = sext i32 %81 to i64
  %83 = getelementptr %struct._srt_procedure_t, ptr %80, i64 %82
  %84 = getelementptr inbounds nuw %struct._srt_procedure_t, ptr %83, i32 0, i32 2
  store ptr %77, ptr %84, align 8
  ret void
}