; Function Attrs: null_pointer_is_valid sspstrong uwtable
define void @init_srt_table_row(ptr noundef captures(none) %0, i32 noundef %1, ptr noundef %2) local_unnamed_addr #2 {
  %4 = getelementptr inbounds nuw i8, ptr %0, i64 24
  %5 = load i32, ptr %4, align 8
  %.not = icmp slt i32 %1, %5
  br i1 %.not, label %.loopexit, label %6

6:                                                ; preds = %3
  %7 = add i32 %1, 1
  store i32 %7, ptr %4, align 8
  %8 = getelementptr inbounds nuw i8, ptr %0, i64 40
  %9 = load ptr, ptr %8, align 8
  %10 = sext i32 %7 to i64
  %11 = mul nsw i64 %10, 88
  %12 = tail call ptr @g_realloc(ptr noundef %9, i64 noundef %11)
  store ptr %12, ptr %8, align 8
  %13 = load i32, ptr %4, align 8
  %14 = icmp slt i32 %5, %13
  br i1 %14, label %.lr.ph.preheader, label %.loopexit

.lr.ph.preheader:                                 ; preds = %6
  %15 = sext i32 %5 to i64
  br label %.lr.ph

.lr.ph:                                           ; preds = %.lr.ph.preheader, %.lr.ph
  %indvars.iv = phi i64 [ %15, %.lr.ph.preheader ], [ %indvars.iv.next, %.lr.ph ]
  %16 = load ptr, ptr %8, align 8
  %17 = getelementptr %struct._srt_procedure_t, ptr %16, i64 %indvars.iv, i32 1
  tail call void @time_stat_init(ptr noundef %17)
  %18 = load ptr, ptr %8, align 8
  %19 = getelementptr %struct._srt_procedure_t, ptr %18, i64 %indvars.iv
  %20 = trunc nsw i64 %indvars.iv to i32
  store i32 %20, ptr %19, align 8
  %21 = load ptr, ptr %8, align 8
  %22 = getelementptr %struct._srt_procedure_t, ptr %21, i64 %indvars.iv, i32 2
  store ptr null, ptr %22, align 8
  %indvars.iv.next = add nsw i64 %indvars.iv, 1
  %23 = load i32, ptr %4, align 8
  %24 = sext i32 %23 to i64
  %25 = icmp slt i64 %indvars.iv.next, %24
  br i1 %25, label %.lr.ph, label %.loopexit, !llvm.loop !12

.loopexit:                                        ; preds = %.lr.ph, %6, %3
  %26 = getelementptr inbounds nuw i8, ptr %0, i64 40
  %27 = load ptr, ptr %26, align 8
  %28 = sext i32 %1 to i64
  %29 = getelementptr %struct._srt_procedure_t, ptr %27, i64 %28
  store i32 %1, ptr %29, align 8
  %30 = tail call noalias ptr @g_strdup(ptr noundef %2)
  %31 = load ptr, ptr %26, align 8
  %32 = getelementptr %struct._srt_procedure_t, ptr %31, i64 %28, i32 2
  store ptr %30, ptr %32, align 8
  ret void
}